; Function Attrs: mustprogress nounwind uwtable
define hidden { i32, i64 } @_ZN6hermes2vm25typedArrayBaseConstructorEPvRNS0_7RuntimeENS0_10NativeArgsE(ptr nocapture readnone %0, ptr noundef nonnull align 8 dereferenceable(9832) %runtime, ptr nocapture readnone %1) #0 {
entry:
  %ref.tmp = alloca %"class.hermes::vm::TwineChar16", align 8
  %rightKind_.i3.i = getelementptr inbounds i8, ptr %ref.tmp, i64 24
  store i32 1, ptr %rightKind_.i3.i, align 8
  %leftSize_.i4.i = getelementptr inbounds i8, ptr %ref.tmp, i64 32
  store i64 48, ptr %leftSize_.i4.i, align 8
  %rightSize_.i5.i = getelementptr inbounds i8, ptr %ref.tmp, i64 40
  store i64 0, ptr %rightSize_.i5.i, align 8
  store ptr @.str, ptr %ref.tmp, align 8
  %2 = getelementptr inbounds i8, ptr %ref.tmp, i64 8
  store i32 3, ptr %2, align 8
  %call = call noundef i32 @_ZN6hermes2vm7Runtime14raiseTypeErrorERKNS0_11TwineChar16E(ptr noundef nonnull align 8 dereferenceable(9832) %runtime, ptr noundef nonnull align 8 dereferenceable(48) %ref.tmp) #10
  %.fca.0.insert = insertvalue { i32, i64 } poison, i32 %call, 0
  %.fca.1.insert = insertvalue { i32, i64 } %.fca.0.insert, i64 undef, 1
  ret { i32, i64 } %.fca.1.insert
}